; Function Attrs: mustprogress uwtable
define noundef zeroext i1 @_ZNK32pxrInternal_v0_24__pxrReserved__16SdfValueTypeNameeqERKNSt7__cxx1112basic_stringIcSt11char_traitsIcESaIcEEE(ptr noundef nonnull readonly align 8 captures(none) dereferenceable(8) %0, ptr noundef nonnull align 8 dereferenceable(32) %1) local_unnamed_addr #1 align 2 personality ptr @__gxx_personality_v0 {
  %3 = alloca %"class.std::__cxx11::basic_string", align 8
  %4 = load ptr, ptr %0, align 8
  %5 = load ptr, ptr %4, align 8
  %6 = getelementptr inbounds nuw i8, ptr %5, i64 104
  call void @_ZNSt7__cxx1112basic_stringIcSt11char_traitsIcESaIcEEC1ERKS4_(ptr noundef nonnull align 8 dereferenceable(32) %3, ptr noundef nonnull align 8 dereferenceable(32) %1)
  %.val = load ptr, ptr %6, align 8
  %7 = getelementptr i8, ptr %5, i64 112
  %.val3 = load ptr, ptr %7, align 8
  %.not.i = icmp eq ptr %.val, %.val3
  br i1 %.not.i, label %_ZN32pxrInternal_v0_24__pxrReserved__12_GLOBAL__N_19IsValueInISt6vectorINS_7TfTokenESaIS3_EENSt7__cxx1112basic_stringIcSt11char_traitsIcESaIcEEEEEbRKT_T0_.exit, label %.lr.ph.i

.lr.ph.i:                                         ; preds = %2, %.noexc
  %.sroa.01.04.i = phi ptr [ %9, %.noexc ], [ %.val, %2 ]
  %8 = invoke noundef zeroext i1 @_ZNK32pxrInternal_v0_24__pxrReserved__7TfTokeneqERKNSt7__cxx1112basic_stringIcSt11char_traitsIcESaIcEEE(ptr noundef nonnull align 8 dereferenceable(8) %.sroa.01.04.i, ptr noundef nonnull align 8 dereferenceable(32) %3)
          to label %.noexc unwind label %10

.noexc:                                           ; preds = %.lr.ph.i
  %9 = getelementptr inbounds nuw i8, ptr %.sroa.01.04.i, i64 8
  %.not7.i = icmp eq ptr %9, %.val3
  %or.cond = select i1 %8, i1 true, i1 %.not7.i
  br i1 %or.cond, label %_ZN32pxrInternal_v0_24__pxrReserved__12_GLOBAL__N_19IsValueInISt6vectorINS_7TfTokenESaIS3_EENSt7__cxx1112basic_stringIcSt11char_traitsIcESaIcEEEEEbRKT_T0_.exit, label %.lr.ph.i

_ZN32pxrInternal_v0_24__pxrReserved__12_GLOBAL__N_19IsValueInISt6vectorINS_7TfTokenESaIS3_EENSt7__cxx1112basic_stringIcSt11char_traitsIcESaIcEEEEEbRKT_T0_.exit: ; preds = %.noexc, %2
  %.lcssa.i = phi i1 [ false, %2 ], [ %8, %.noexc ]
  call void @_ZNSt7__cxx1112basic_stringIcSt11char_traitsIcESaIcEED1Ev(ptr noundef nonnull align 8 dereferenceable(32) %3) #14
  ret i1 %.lcssa.i

10:                                               ; preds = %.lr.ph.i
  %11 = landingpad { ptr, i32 }
          cleanup
  call void @_ZNSt7__cxx1112basic_stringIcSt11char_traitsIcESaIcEED1Ev(ptr noundef nonnull align 8 dereferenceable(32) %3) #14
  resume { ptr, i32 } %11
}